target datalayout = "e-m:e-p270:32:32-p271:32:32-p272:64:64-i64:64-i128:128-f80:128-n8:16:32:64-S128"
target triple = "x86_64-pc-linux-gnu"

@ff_crop_tab = external hidden constant [2304 x i8], align 16

; Function Attrs: nounwind uwtable
define internal void @intra_pred_plane(ptr noundef %0, ptr noundef %1, ptr noundef %2, i64 noundef %3) #0 {
  %5 = alloca ptr, align 8
  %6 = alloca ptr, align 8
  %7 = alloca ptr, align 8
  %8 = alloca i64, align 8
  %9 = alloca i32, align 4
  %10 = alloca i32, align 4
  %11 = alloca i32, align 4
  %12 = alloca i32, align 4
  %13 = alloca i32, align 4
  %14 = alloca ptr, align 8
  store ptr %0, ptr %5, align 8, !tbaa !57
  store ptr %1, ptr %6, align 8, !tbaa !57
  store ptr %2, ptr %7, align 8, !tbaa !57
  store i64 %3, ptr %8, align 8, !tbaa !107
  call void @llvm.lifetime.start.p0(i64 4, ptr %9) #10
  call void @llvm.lifetime.start.p0(i64 4, ptr %10) #10
  call void @llvm.lifetime.start.p0(i64 4, ptr %11) #10
  call void @llvm.lifetime.start.p0(i64 4, ptr %12) #10
  store i32 0, ptr %12, align 4, !tbaa !9
  call void @llvm.lifetime.start.p0(i64 4, ptr %13) #10
  store i32 0, ptr %13, align 4, !tbaa !9
  call void @llvm.lifetime.start.p0(i64 8, ptr %14) #10
  store ptr getelementptr inbounds (i8, ptr @ff_crop_tab, i64 1024), ptr %14, align 8, !tbaa !57
  store i32 0, ptr %9, align 4, !tbaa !9
  br label %15

15:                                               ; preds = %59, %4
  %16 = load i32, ptr %9, align 4, !tbaa !9
  %17 = icmp slt i32 %16, 4
  br i1 %17, label %18, label %62

18:                                               ; preds = %15
  %19 = load i32, ptr %9, align 4, !tbaa !9
  %20 = add nsw i32 %19, 1
  %21 = load ptr, ptr %6, align 8, !tbaa !57
  %22 = load i32, ptr %9, align 4, !tbaa !9
  %23 = add nsw i32 5, %22
  %24 = sext i32 %23 to i64
  %25 = getelementptr inbounds i8, ptr %21, i64 %24
  %26 = load i8, ptr %25, align 1, !tbaa !27
  %27 = zext i8 %26 to i32
  %28 = load ptr, ptr %6, align 8, !tbaa !57
  %29 = load i32, ptr %9, align 4, !tbaa !9
  %30 = sub nsw i32 3, %29
  %31 = sext i32 %30 to i64
  %32 = getelementptr inbounds i8, ptr %28, i64 %31
  %33 = load i8, ptr %32, align 1, !tbaa !27
  %34 = zext i8 %33 to i32
  %35 = sub nsw i32 %27, %34
  %36 = mul nsw i32 %20, %35
  %37 = load i32, ptr %12, align 4, !tbaa !9
  %38 = add nsw i32 %37, %36
  store i32 %38, ptr %12, align 4, !tbaa !9
  %39 = load i32, ptr %9, align 4, !tbaa !9
  %40 = add nsw i32 %39, 1
  %41 = load ptr, ptr %7, align 8, !tbaa !57
  %42 = load i32, ptr %9, align 4, !tbaa !9
  %43 = add nsw i32 5, %42
  %44 = sext i32 %43 to i64
  %45 = getelementptr inbounds i8, ptr %41, i64 %44
  %46 = load i8, ptr %45, align 1, !tbaa !27
  %47 = zext i8 %46 to i32
  %48 = load ptr, ptr %7, align 8, !tbaa !57
  %49 = load i32, ptr %9, align 4, !tbaa !9
  %50 = sub nsw i32 3, %49
  %51 = sext i32 %50 to i64
  %52 = getelementptr inbounds i8, ptr %48, i64 %51
  %53 = load i8, ptr %52, align 1, !tbaa !27
  %54 = zext i8 %53 to i32
  %55 = sub nsw i32 %47, %54
  %56 = mul nsw i32 %40, %55
  %57 = load i32, ptr %13, align 4, !tbaa !9
  %58 = add nsw i32 %57, %56
  store i32 %58, ptr %13, align 4, !tbaa !9
  br label %59

59:                                               ; preds = %18
  %60 = load i32, ptr %9, align 4, !tbaa !9
  %61 = add nsw i32 %60, 1
  store i32 %61, ptr %9, align 4, !tbaa !9
  br label %15, !llvm.loop !121

62:                                               ; preds = %15
  %63 = load ptr, ptr %6, align 8, !tbaa !57
  %64 = getelementptr inbounds i8, ptr %63, i64 8
  %65 = load i8, ptr %64, align 1, !tbaa !27
  %66 = zext i8 %65 to i32
  %67 = load ptr, ptr %7, align 8, !tbaa !57
  %68 = getelementptr inbounds i8, ptr %67, i64 8
  %69 = load i8, ptr %68, align 1, !tbaa !27
  %70 = zext i8 %69 to i32
  %71 = add nsw i32 %66, %70
  %72 = shl i32 %71, 4
  store i32 %72, ptr %11, align 4, !tbaa !9
  %73 = load i32, ptr %12, align 4, !tbaa !9
  %74 = mul nsw i32 17, %73
  %75 = add nsw i32 %74, 16
  %76 = ashr i32 %75, 5
  store i32 %76, ptr %12, align 4, !tbaa !9
  %77 = load i32, ptr %13, align 4, !tbaa !9
  %78 = mul nsw i32 17, %77
  %79 = add nsw i32 %78, 16
  %80 = ashr i32 %79, 5
  store i32 %80, ptr %13, align 4, !tbaa !9
  store i32 0, ptr %10, align 4, !tbaa !9
  br label %81

81:                                               ; preds = %119, %62
  %82 = load i32, ptr %10, align 4, !tbaa !9
  %83 = icmp slt i32 %82, 8
  br i1 %83, label %84, label %122

84:                                               ; preds = %81
  store i32 0, ptr %9, align 4, !tbaa !9
  br label %85

85:                                               ; preds = %115, %84
  %86 = load i32, ptr %9, align 4, !tbaa !9
  %87 = icmp slt i32 %86, 8
  br i1 %87, label %88, label %118

88:                                               ; preds = %85
  %89 = load ptr, ptr %14, align 8, !tbaa !57
  %90 = load i32, ptr %11, align 4, !tbaa !9
  %91 = load i32, ptr %9, align 4, !tbaa !9
  %92 = sub nsw i32 %91, 3
  %93 = load i32, ptr %12, align 4, !tbaa !9
  %94 = mul nsw i32 %92, %93
  %95 = add nsw i32 %90, %94
  %96 = load i32, ptr %10, align 4, !tbaa !9
  %97 = sub nsw i32 %96, 3
  %98 = load i32, ptr %13, align 4, !tbaa !9
  %99 = mul nsw i32 %97, %98
  %100 = add nsw i32 %95, %99
  %101 = add nsw i32 %100, 16
  %102 = ashr i32 %101, 5
  %103 = sext i32 %102 to i64
  %104 = getelementptr inbounds i8, ptr %89, i64 %103
  %105 = load i8, ptr %104, align 1, !tbaa !27
  %106 = load ptr, ptr %5, align 8, !tbaa !57
  %107 = load i32, ptr %10, align 4, !tbaa !9
  %108 = sext i32 %107 to i64
  %109 = load i64, ptr %8, align 8, !tbaa !107
  %110 = mul nsw i64 %108, %109
  %111 = load i32, ptr %9, align 4, !tbaa !9
  %112 = sext i32 %111 to i64
  %113 = add nsw i64 %110, %112
  %114 = getelementptr inbounds i8, ptr %106, i64 %113
  store i8 %105, ptr %114, align 1, !tbaa !27
  br label %115

115:                                              ; preds = %88
  %116 = load i32, ptr %9, align 4, !tbaa !9
  %117 = add nsw i32 %116, 1
  store i32 %117, ptr %9, align 4, !tbaa !9
  br label %85, !llvm.loop !122

118:                                              ; preds = %85
  br label %119

119:                                              ; preds = %118
  %120 = load i32, ptr %10, align 4, !tbaa !9
  %121 = add nsw i32 %120, 1
  store i32 %121, ptr %10, align 4, !tbaa !9
  br label %81, !llvm.loop !123

122:                                              ; preds = %81
  call void @llvm.lifetime.end.p0(i64 8, ptr %14) #10
  call void @llvm.lifetime.end.p0(i64 4, ptr %13) #10
  call void @llvm.lifetime.end.p0(i64 4, ptr %12) #10
  call void @llvm.lifetime.end.p0(i64 4, ptr %11) #10
  call void @llvm.lifetime.end.p0(i64 4, ptr %10) #10
  call void @llvm.lifetime.end.p0(i64 4, ptr %9) #10
  ret void
}