; Function Attrs: nofree norecurse nosync nounwind memory(argmem: readwrite) uwtable
define internal void @intra_pred_plane(ptr noundef writeonly captures(none) %0, ptr noundef readonly captures(none) %1, ptr noundef readonly captures(none) %2, i64 noundef %3) #9 {
  br label %5

5:                                                ; preds = %4, %5
  %indvars.iv = phi i64 [ 0, %4 ], [ %indvars.iv.next, %5 ]
  %.03135 = phi i32 [ 0, %4 ], [ %26, %5 ]
  %.03234 = phi i32 [ 0, %4 ], [ %17, %5 ]
  %indvars.iv.next = add nuw nsw i64 %indvars.iv, 1
  %6 = add nuw nsw i64 %indvars.iv, 5
  %7 = getelementptr inbounds nuw i8, ptr %1, i64 %6
  %8 = load i8, ptr %7, align 1, !tbaa !24
  %9 = zext i8 %8 to i32
  %10 = sub nuw nsw i64 3, %indvars.iv
  %11 = getelementptr inbounds nuw i8, ptr %1, i64 %10
  %12 = load i8, ptr %11, align 1, !tbaa !24
  %13 = zext i8 %12 to i32
  %14 = sub nsw i32 %9, %13
  %15 = trunc nuw nsw i64 %indvars.iv.next to i32
  %16 = mul nsw i32 %14, %15
  %17 = add nsw i32 %16, %.03234
  %18 = getelementptr inbounds nuw i8, ptr %2, i64 %6
  %19 = load i8, ptr %18, align 1, !tbaa !24
  %20 = zext i8 %19 to i32
  %21 = getelementptr inbounds nuw i8, ptr %2, i64 %10
  %22 = load i8, ptr %21, align 1, !tbaa !24
  %23 = zext i8 %22 to i32
  %24 = sub nsw i32 %20, %23
  %25 = mul nsw i32 %24, %15
  %26 = add nsw i32 %25, %.03135
  %exitcond.not = icmp eq i64 %indvars.iv.next, 4
  br i1 %exitcond.not, label %27, label %5, !llvm.loop !109

27:                                               ; preds = %5
  %28 = getelementptr inbounds nuw i8, ptr %1, i64 8
  %29 = load i8, ptr %28, align 1, !tbaa !24
  %30 = zext i8 %29 to i32
  %31 = getelementptr inbounds nuw i8, ptr %2, i64 8
  %32 = load i8, ptr %31, align 1, !tbaa !24
  %33 = zext i8 %32 to i32
  %34 = add nuw nsw i32 %33, %30
  %35 = shl nuw nsw i32 %34, 4
  %36 = mul nsw i32 %17, 17
  %37 = add nsw i32 %36, 16
  %38 = ashr i32 %37, 5
  %39 = mul nsw i32 %26, 17
  %40 = add nsw i32 %39, 16
  %41 = ashr i32 %40, 5
  %42 = add nuw nsw i32 %35, 16
  br label %.preheader

.preheader:                                       ; preds = %27, %59
  %indvars.iv45 = phi i64 [ 0, %27 ], [ %indvars.iv.next46, %59 ]
  %43 = trunc i64 %indvars.iv45 to i32
  %44 = add i32 %43, -3
  %45 = mul i32 %44, %41
  %46 = add i32 %42, %45
  %47 = mul nsw i64 %3, %indvars.iv45
  %48 = getelementptr i8, ptr %0, i64 %47
  br label %49

49:                                               ; preds = %.preheader, %49
  %indvars.iv41 = phi i64 [ 0, %.preheader ], [ %indvars.iv.next42, %49 ]
  %50 = trunc i64 %indvars.iv41 to i32
  %51 = add i32 %50, -3
  %52 = mul i32 %51, %38
  %53 = add i32 %46, %52
  %54 = ashr i32 %53, 5
  %55 = sext i32 %54 to i64
  %56 = getelementptr inbounds i8, ptr getelementptr inbounds nuw (i8, ptr @ff_crop_tab, i64 1024), i64 %55
  %57 = load i8, ptr %56, align 1, !tbaa !24
  %58 = getelementptr i8, ptr %48, i64 %indvars.iv41
  store i8 %57, ptr %58, align 1, !tbaa !24
  %indvars.iv.next42 = add nuw nsw i64 %indvars.iv41, 1
  %exitcond44.not = icmp eq i64 %indvars.iv.next42, 8
  br i1 %exitcond44.not, label %59, label %49, !llvm.loop !110

59:                                               ; preds = %49
  %indvars.iv.next46 = add nuw nsw i64 %indvars.iv45, 1
  %exitcond48.not = icmp eq i64 %indvars.iv.next46, 8
  br i1 %exitcond48.not, label %60, label %.preheader, !llvm.loop !111

60:                                               ; preds = %59
  ret void
}